; Function Attrs: mustprogress uwtable
define hidden void @_ZN5osgeo4proj9operation19CoordinateOperationC2Ev(ptr noundef nonnull align 8 dereferenceable(72) %0) unnamed_addr #0 align 2 personality ptr @__gxx_personality_v0 {
  tail call void @_ZN5osgeo4proj6common11ObjectUsageC2Ev(ptr noundef nonnull align 8 dereferenceable(48) %0)
  %2 = getelementptr inbounds nuw i8, ptr %0, i64 48
  %3 = getelementptr inbounds nuw i8, ptr %0, i64 56
  store ptr getelementptr inbounds nuw inrange(-16, 56) (i8, ptr @_ZTVN5osgeo4proj9operation19CoordinateOperationE, i64 16), ptr %0, align 8, !tbaa !3
  %4 = getelementptr inbounds nuw i8, ptr %0, i64 16
  store ptr getelementptr inbounds nuw inrange(-16, 24) (i8, ptr @_ZTVN5osgeo4proj9operation19CoordinateOperationE, i64 88), ptr %4, align 8, !tbaa !3
  %5 = getelementptr inbounds nuw i8, ptr %0, i64 24
  store ptr getelementptr inbounds nuw inrange(-16, 24) (i8, ptr @_ZTVN5osgeo4proj9operation19CoordinateOperationE, i64 128), ptr %5, align 8, !tbaa !3
  store ptr getelementptr inbounds nuw inrange(-16, 24) (i8, ptr @_ZTVN5osgeo4proj9operation19CoordinateOperationE, i64 168), ptr %2, align 8, !tbaa !3
  store ptr getelementptr inbounds nuw inrange(-16, 24) (i8, ptr @_ZTVN5osgeo4proj9operation19CoordinateOperationE, i64 208), ptr %3, align 8, !tbaa !3
  tail call void @llvm.experimental.noalias.scope.decl(metadata !24)
  %6 = invoke noalias noundef nonnull dereferenceable(160) ptr @_Znwm(i64 noundef 160) #48
          to label %.noexc unwind label %11

.noexc:                                           ; preds = %1
  tail call void @llvm.memset.p0.i64(ptr noundef nonnull align 16 dereferenceable(160) %6, i8 0, i64 160, i1 false), !noalias !24
  invoke void @_ZN5osgeo4proj9operation19CoordinateOperation7PrivateC2Ev(ptr noundef nonnull align 8 dereferenceable(160) %6)
          to label %9 unwind label %7, !noalias !24

7:                                                ; preds = %.noexc
  %8 = landingpad { ptr, i32 }
          cleanup
  tail call void @_ZdlPvm(ptr noundef nonnull %6, i64 noundef 160) #47, !noalias !24
  br label %.body

9:                                                ; preds = %.noexc
  %10 = getelementptr inbounds nuw i8, ptr %0, i64 64
  store ptr %6, ptr %10, align 8, !tbaa !27, !alias.scope !24
  ret void

11:                                               ; preds = %1
  %12 = landingpad { ptr, i32 }
          cleanup
  br label %.body

.body:                                            ; preds = %7, %11
  %eh.lpad-body = phi { ptr, i32 } [ %12, %11 ], [ %8, %7 ]
  tail call void @_ZN5osgeo4proj2io15IJSONExportableD2Ev(ptr noundef nonnull align 8 dereferenceable(8) %3) #46
  tail call void @_ZN5osgeo4proj2io21IPROJStringExportableD2Ev(ptr noundef nonnull align 8 dereferenceable(8) %2) #46
  tail call void @_ZN5osgeo4proj6common11ObjectUsageD2Ev(ptr noundef nonnull align 8 dereferenceable(48) %0) #46
  resume { ptr, i32 } %eh.lpad-body
}